; Function Attrs: mustprogress nofree norecurse nosync nounwind willreturn memory(read, inaccessiblemem: none) uwtable
define hidden noundef zeroext i1 @_ZNK13PhaseRegAlloc6is_oopEPK4Node(ptr nocapture noundef nonnull readonly align 8 dereferenceable(96) %0, ptr nocapture noundef readonly %1) local_unnamed_addr #2 align 2 {
  %3 = getelementptr inbounds i8, ptr %0, i64 40
  %4 = getelementptr inbounds i8, ptr %1, i64 40
  %5 = load i32, ptr %4, align 8
  %6 = lshr i32 %5, 5
  %7 = load i32, ptr %3, align 8
  %.not.i = icmp ult i32 %6, %7
  br i1 %.not.i, label %8, label %_ZNK9VectorSet4testEj.exit

8:                                                ; preds = %2
  %9 = and i32 %5, 31
  %10 = shl nuw i32 1, %9
  %11 = getelementptr inbounds i8, ptr %0, i64 48
  %12 = load ptr, ptr %11, align 8
  %13 = zext nneg i32 %6 to i64
  %14 = getelementptr inbounds i32, ptr %12, i64 %13
  %15 = load i32, ptr %14, align 4
  %16 = and i32 %15, %10
  %17 = icmp ne i32 %16, 0
  br label %_ZNK9VectorSet4testEj.exit

_ZNK9VectorSet4testEj.exit:                       ; preds = %2, %8
  %.0.i = phi i1 [ %17, %8 ], [ false, %2 ]
  ret i1 %.0.i
}